; Function Attrs: nounwind uwtable
define void @PGTYPEStimestamp_current(ptr noundef writeonly captures(none) %0) local_unnamed_addr #0 {
  %2 = alloca %struct.tm, align 8
  call void @llvm.lifetime.start.p0(i64 56, ptr nonnull %2) #10
  call void @GetCurrentDateTime(ptr noundef nonnull %2) #10
  %3 = tail call ptr @__errno_location() #12
  %4 = load i32, ptr %3, align 4
  %5 = icmp eq i32 %4, 0
  br i1 %5, label %6, label %tm2timestamp.exit

6:                                                ; preds = %1
  %7 = getelementptr inbounds nuw i8, ptr %2, i64 20
  %8 = load i32, ptr %7, align 4
  %9 = icmp sgt i32 %8, -4713
  br i1 %9, label %15, label %10

10:                                               ; preds = %6
  %11 = icmp eq i32 %8, -4713
  %12 = getelementptr inbounds nuw i8, ptr %2, i64 16
  %13 = load i32, ptr %12, align 8
  %14 = icmp sgt i32 %13, 10
  %or.cond = select i1 %11, i1 %14, i1 false
  br i1 %or.cond, label %.thread.i, label %tm2timestamp.exit

15:                                               ; preds = %6
  %16 = icmp slt i32 %8, 5874898
  br i1 %16, label %..thread_crit_edge.i, label %17

..thread_crit_edge.i:                             ; preds = %15
  %.phi.trans.insert.i = getelementptr inbounds nuw i8, ptr %2, i64 16
  %.pre.i = load i32, ptr %.phi.trans.insert.i, align 8
  br label %.thread.i

17:                                               ; preds = %15
  %18 = icmp eq i32 %8, 5874898
  %19 = getelementptr inbounds nuw i8, ptr %2, i64 16
  %20 = load i32, ptr %19, align 8
  %21 = icmp slt i32 %20, 6
  %or.cond5 = select i1 %18, i1 %21, i1 false
  br i1 %or.cond5, label %.thread.i, label %tm2timestamp.exit

.thread.i:                                        ; preds = %17, %10, %..thread_crit_edge.i
  %22 = phi i32 [ %.pre.i, %..thread_crit_edge.i ], [ %13, %10 ], [ %20, %17 ]
  %23 = getelementptr inbounds nuw i8, ptr %2, i64 12
  %24 = load i32, ptr %23, align 4
  %25 = call i32 @date2j(i32 noundef %8, i32 noundef %22, i32 noundef %24) #10
  %26 = call i32 @date2j(i32 noundef 2000, i32 noundef 1, i32 noundef 1) #10
  %27 = sub i32 %25, %26
  %28 = getelementptr inbounds nuw i8, ptr %2, i64 8
  %29 = load i32, ptr %28, align 8
  %30 = getelementptr inbounds nuw i8, ptr %2, i64 4
  %31 = load i32, ptr %30, align 4
  %32 = load i32, ptr %2, align 8
  %33 = sext i32 %27 to i64
  %34 = call { i64, i1 } @llvm.smul.with.overflow.i64(i64 range(i64 -2147483648, 2147483648) %33, i64 86400000000)
  %35 = extractvalue { i64, i1 } %34, 1
  %36 = extractvalue { i64, i1 } %34, 0
  store i64 %36, ptr %0, align 8
  br i1 %35, label %tm2timestamp.exit, label %37

37:                                               ; preds = %.thread.i
  %38 = mul i32 %29, 60
  %39 = add i32 %38, %31
  %40 = mul i32 %39, 60
  %41 = add i32 %40, %32
  %42 = sext i32 %41 to i64
  %43 = mul nsw i64 %42, 1000000
  %44 = add i64 %36, %43
  store i64 %44, ptr %0, align 8
  br label %tm2timestamp.exit

tm2timestamp.exit:                                ; preds = %37, %.thread.i, %17, %10, %1
  call void @llvm.lifetime.end.p0(i64 56, ptr nonnull %2) #10
  ret void
}